; ModuleID = '34/2366.c'
source_filename = "34/2366.c"
target datalayout = "e-m:e-p270:32:32-p271:32:32-p272:64:64-i64:64-f80:128-n8:16:32:64-S128"
target triple = "x86_64-pc-linux-gnu"

@.str = private unnamed_addr constant [3 x i8] c"%d\00", align 1
@n = common dso_local global i32 0, align 4
@.str.1 = private unnamed_addr constant [4 x i8] c"End\00", align 1
@.str.2 = private unnamed_addr constant [8 x i8] c"%d*3+1=\00", align 1
@.str.3 = private unnamed_addr constant [4 x i8] c"%d\0A\00", align 1
@.str.4 = private unnamed_addr constant [6 x i8] c"%d/2=\00", align 1

; Function Attrs: noinline nounwind uwtable
define dso_local i32 @main() #0 {
  %1 = alloca i32, align 4
  store i32 0, i32* %1, align 4
  %2 = call i32 (i8*, ...) @__isoc99_scanf(i8* getelementptr inbounds ([3 x i8], [3 x i8]* @.str, i64 0, i64 0), i32* @n)
  br label %3

3:                                                ; preds = %36, %0
  %4 = load i32, i32* @n, align 4
  %5 = srem i32 %4, 2
  %6 = icmp eq i32 %5, 1
  br i1 %6, label %7, label %37

7:                                                ; preds = %3
  %8 = load i32, i32* @n, align 4
  %9 = icmp eq i32 %8, 1
  br i1 %9, label %10, label %12

10:                                               ; preds = %7
  %11 = call i32 (i8*, ...) @printf(i8* getelementptr inbounds ([4 x i8], [4 x i8]* @.str.1, i64 0, i64 0))
  br label %37

12:                                               ; preds = %7
  %13 = load i32, i32* @n, align 4
  %14 = call i32 (i8*, ...) @printf(i8* getelementptr inbounds ([8 x i8], [8 x i8]* @.str.2, i64 0, i64 0), i32 %13)
  %15 = load i32, i32* @n, align 4
  %16 = mul nsw i32 %15, 3
  %17 = add nsw i32 %16, 1
  store i32 %17, i32* @n, align 4
  %18 = load i32, i32* @n, align 4
  %19 = call i32 (i8*, ...) @printf(i8* getelementptr inbounds ([4 x i8], [4 x i8]* @.str.3, i64 0, i64 0), i32 %18)
  br label %20

20:                                               ; preds = %24, %12
  %21 = load i32, i32* @n, align 4
  %22 = srem i32 %21, 2
  %23 = icmp eq i32 %22, 0
  br i1 %23, label %24, label %31

24:                                               ; preds = %20
  %25 = load i32, i32* @n, align 4
  %26 = call i32 (i8*, ...) @printf(i8* getelementptr inbounds ([6 x i8], [6 x i8]* @.str.4, i64 0, i64 0), i32 %25)
  %27 = load i32, i32* @n, align 4
  %28 = sdiv i32 %27, 2
  store i32 %28, i32* @n, align 4
  %29 = load i32, i32* @n, align 4
  %30 = call i32 (i8*, ...) @printf(i8* getelementptr inbounds ([4 x i8], [4 x i8]* @.str.3, i64 0, i64 0), i32 %29)
  br label %20

31:                                               ; preds = %20
  %32 = load i32, i32* @n, align 4
  %33 = icmp eq i32 %32, 1
  br i1 %33, label %34, label %36

34:                                               ; preds = %31
  %35 = call i32 (i8*, ...) @printf(i8* getelementptr inbounds ([4 x i8], [4 x i8]* @.str.1, i64 0, i64 0))
  br label %37

36:                                               ; preds = %31
  br label %3

37:                                               ; preds = %34, %10, %3
  br label %38

38:                                               ; preds = %66, %37
  %39 = load i32, i32* @n, align 4
  %40 = srem i32 %39, 2
  %41 = icmp eq i32 %40, 0
  br i1 %41, label %42, label %67

42:                                               ; preds = %38
  %43 = load i32, i32* @n, align 4
  %44 = call i32 (i8*, ...) @printf(i8* getelementptr inbounds ([6 x i8], [6 x i8]* @.str.4, i64 0, i64 0), i32 %43)
  %45 = load i32, i32* @n, align 4
  %46 = sdiv i32 %45, 2
  store i32 %46, i32* @n, align 4
  %47 = load i32, i32* @n, align 4
  %48 = call i32 (i8*, ...) @printf(i8* getelementptr inbounds ([4 x i8], [4 x i8]* @.str.3, i64 0, i64 0), i32 %47)
  %49 = load i32, i32* @n, align 4
  %50 = icmp eq i32 %49, 1
  br i1 %50, label %51, label %53

51:                                               ; preds = %42
  %52 = call i32 (i8*, ...) @printf(i8* getelementptr inbounds ([4 x i8], [4 x i8]* @.str.1, i64 0, i64 0))
  br label %67

53:                                               ; preds = %42
  br label %54

54:                                               ; preds = %58, %53
  %55 = load i32, i32* @n, align 4
  %56 = srem i32 %55, 2
  %57 = icmp eq i32 %56, 1
  br i1 %57, label %58, label %66

58:                                               ; preds = %54
  %59 = load i32, i32* @n, align 4
  %60 = call i32 (i8*, ...) @printf(i8* getelementptr inbounds ([8 x i8], [8 x i8]* @.str.2, i64 0, i64 0), i32 %59)
  %61 = load i32, i32* @n, align 4
  %62 = mul nsw i32 %61, 3
  %63 = add nsw i32 %62, 1
  store i32 %63, i32* @n, align 4
  %64 = load i32, i32* @n, align 4
  %65 = call i32 (i8*, ...) @printf(i8* getelementptr inbounds ([4 x i8], [4 x i8]* @.str.3, i64 0, i64 0), i32 %64)
  br label %54

66:                                               ; preds = %54
  br label %38

67:                                               ; preds = %51, %38
  ret i32 0
}

declare dso_local i32 @__isoc99_scanf(i8*, ...) #1

declare dso_local i32 @printf(i8*, ...) #1


!llvm.module.flags = !{!0}
!llvm.ident = !{!1}

!0 = !{i32 1, !"wchar_size", i32 4}
!1 = !{!"clang version 10.0.0-4ubuntu1 "}
